Certificate Request:
    Data:
        Version: 0 (0x0)
        Subject: C=CN, ST=Shanghai, O=Yuevd HAHA, OU=plyr.com, CN=\xE8\xBF\x99\xE6\x98\xAF\xE6\xB5\x8B\xE8\xAF\x95\xE7\x94\xA8\xE7\x9A\x84haha/emailAddress=2397994156@qq.com
        Subject Public Key Info:
            Public Key Algorithm: rsaEncryption
            RSA Public Key: (2048 bit)
                Modulus (2048 bit):
                    00:e1:34:cd:7f:52:0a:6c:50:3e:91:cb:df:95:cf:
                    31:28:cf:ae:78:87:f4:ea:7b:f1:ac:86:5a:1b:67:
                    df:9f:e1:c6:de:5b:29:5e:7e:73:a7:3d:80:eb:9a:
                    89:78:ac:23:c2:17:37:bb:9b:c5:6f:87:2d:ad:d7:
                    fe:6e:10:13:d0:23:1f:ed:f3:1a:a8:9e:9f:9c:65:
                    77:b6:ad:a8:03:a0:79:0d:74:36:96:a7:24:61:ff:
                    b7:31:5f:60:23:bf:d5:f8:cd:97:ee:bc:d0:bc:83:
                    98:cf:03:30:ec:d4:75:06:bc:68:8a:8c:f3:09:4b:
                    8f:0f:6b:97:77:e5:01:cf:f6:8c:48:49:d4:f0:64:
                    a6:49:32:c1:f7:08:26:94:9f:94:c2:db:f5:d0:ce:
                    a5:6c:e0:3b:d4:88:b6:59:15:31:2f:aa:c0:91:98:
                    1c:bf:1b:a2:35:b6:65:37:1b:34:18:5d:12:5e:70:
                    fc:fd:eb:d0:fe:a3:1d:51:95:a2:b1:c8:c5:6a:ea:
                    cc:6f:60:73:ea:1f:c9:7c:25:a0:bd:48:34:37:11:
                    74:d6:13:c4:39:5e:46:bd:4a:cd:c6:ba:18:84:a0:
                    8d:18:57:c4:85:4c:13:f8:c4:6a:ab:6e:18:c0:92:
                    62:a3:20:d5:20:e8:5d:e3:f0:b9:a8:26:ad:7c:92:
                    b5:d9
                Exponent: 65537 (0x10001)
        Attributes:
            a0:00
    Signature Algorithm: sha256WithRSAEncryption
        73:d5:54:1d:6b:5c:88:0d:da:63:67:a7:12:1d:f2:b5:44:46:
        3a:15:ad:92:bd:27:7d:ce:36:21:40:c1:d0:1f:3f:25:2e:b6:
        72:03:17:3c:ed:6f:52:9b:20:11:47:de:28:17:08:b6:78:09:
        82:26:b7:b4:66:91:62:b4:81:26:ae:22:99:d5:a5:d7:8a:df:
        f5:89:7f:98:54:ca:a6:c4:0d:80:23:40:99:bc:53:9f:15:cb:
        14:62:e6:4d:37:29:7a:63:1c:89:52:00:56:db:11:0f:4f:46:
        38:29:b0:1b:19:4f:13:76:b0:0e:5b:2f:91:aa:4d:3c:e7:e6:
        d4:67:67:70:cc:b5:da:af:e4:93:e9:02:82:a6:ae:84:fd:28:
        d5:c4:2f:5d:bd:1a:42:ee:3e:a0:a3:28:51:97:08:df:7a:c6:
        2c:de:bf:a3:44:a4:9d:c2:eb:ca:5b:f1:f6:5e:5e:08:56:a0:
        b7:cd:1a:d2:ca:67:40:28:98:78:57:4e:bb:5d:74:dc:f0:d6:
        ee:00:01:ac:4c:bb:e1:53:23:3a:15:c9:9a:34:54:51:64:c0:
        7f:14:90:60:8b:31:c2:9f:02:58:f9:15:a4:30:c9:ed:ce:ea:
        29:2c:37:8c:f1:d9:b2:29:86:33:8e:6f:ac:2d:94:35:f9:70:
        e7:b7:dc:8e
-----BEGIN CERTIFICATE REQUEST-----
MIIC0TCCAbkCAQAwgYsxCzAJBgNVBAYTAkNOMREwDwYDVQQIDAhTaGFuZ2hhaTET
MBEGA1UECgwKWXVldmQgSEFIQTERMA8GA1UECwwIcGx5ci5jb20xHzAdBgNVBAMM
Fui/meaYr+a1i+ivleeUqOeahGhhaGExIDAeBgkqhkiG9w0BCQEWETIzOTc5OTQx
NTZAcXEuY29tMIIBIjANBgkqhkiG9w0BAQEFAAOCAQ8AMIIBCgKCAQEA4TTNf1IK
bFA+kcvflc8xKM+ueIf06nvxrIZaG2ffn+HG3lspXn5zpz2A65qJeKwjwhc3u5vF
b4ctrdf+bhAT0CMf7fMaqJ6fnGV3tq2oA6B5DXQ2lqckYf+3MV9gI7/V+M2X7rzQ
vIOYzwMw7NR1BrxoiozzCUuPD2uXd+UBz/aMSEnU8GSmSTLB9wgmlJ+Uwtv10M6l
bOA71Ii2WRUxL6rAkZgcvxuiNbZlNxs0GF0SXnD8/evQ/qMdUZWiscjFaurMb2Bz
6h/JfCWgvUg0NxF01hPEOV5GvUrNxroYhKCNGFfEhUwT+MRqq24YwJJioyDVIOhd
4/C5qCatfJK12QIDAQABoAAwDQYJKoZIhvcNAQELBQADggEBAHPVVB1rXIgN2mNn
pxId8rVERjoVrZK9J33ONiFAwdAfPyUutnIDFzztb1KbIBFH3igXCLZ4CYImt7Rm
kWK0gSauIpnVpdeK3/WJf5hUyqbEDYAjQJm8U58VyxRi5k03KXpjHIlSAFbbEQ9P
RjgpsBsZTxN2sA5bL5GqTTzn5tRnZ3DMtdqv5JPpAoKmroT9KNXEL129GkLuPqCj
KFGXCN96xizev6NEpJ3C68pb8fZeXghWoLfNGtLKZ0AomHhXTrtddNzw1u4AAaxM
u+FTIzoVyZo0VFFkwH8UkGCLMcKfAlj5FaQwye3O6iksN4zx2bIphjOOb6wtlDX5
cOe33I4=
-----END CERTIFICATE REQUEST-----
